(dp0
VNevil
p1
(lp2
(lp3
Vcharacter
p4
aF0.0
aa(lp5
Vplace
p6
acnumpy.core.multiarray
scalar
p7
(cnumpy
dtype
p8
(S'f8'
p9
I0
I1
tp10
Rp11
(I3
S'<'
p12
NNNI-1
I-1
I0
tp13
bS'\x86\xc4A\xd6\x06\xea\xd4?'
p14
tp15
Rp16
aa(lp17
Vcharacter
p18
aF0.7142857142857143
aa(lp19
Vcharacter
p20
aF0.5726495726495726
aa(lp21
Vcharacter
p22
ag7
(g11
S'\t\x9d\x1b\x9e\xd2\x9aq?'
p23
tp24
Rp25
aa(lp26
S'character'
p27
aF0.75
aasVTomaso
p28
(lp29
(lp30
Vunknown
p31
aI0
aa(lp32
Vcharacter
p33
ag7
(g11
S'\xa0\xd0\x8d\xec\x06g\xe1?'
p34
tp35
Rp36
aa(lp37
g18
aF0.75
aa(lp38
g20
aF0.8947368421052632
aa(lp39
Vplace
p40
ag7
(g11
S']\xcb\xe7\xb2t\x15\r?'
p41
tp42
Rp43
aa(lp44
Vunknown
p45
aI0
aasVAnglais
p46
(lp47
(lp48
g31
aI0
aa(lp49
g33
ag7
(g11
S'\xc8&7\xe2\xb5\x86\xbe?'
p50
tp51
Rp52
aa(lp53
g18
aF0.6666666666666666
aa(lp54
g20
aF0.64
aa(lp55
g40
ag7
(g11
S'?\xf8\xfc\xb2r\x1d\xba?'
p56
tp57
Rp58
aa(lp59
S'character'
p60
aF1.0
aasVAnton
p61
(lp62
(lp63
g31
aI0
aa(lp64
g6
ag7
(g11
S' ~:\xa0\\\xeb\xbd?'
p65
tp66
Rp67
aa(lp68
Vunknown
p69
aI0
aa(lp70
Vunknown
p71
aI0
aa(lp72
g22
ag7
(g11
S'A?\xcd\xb5\xa9\xd5\xbb?'
p73
tp74
Rp75
aa(lp76
S'character'
p77
aF0.08374384236453201
aasVFrance
p78
(lp79
(lp80
g31
aI0
aa(lp81
g6
ag7
(g11
S'\xe0\xda\x05\x94\xb3\r\xa9?'
p82
tp83
Rp84
aa(lp85
g69
aI0
aa(lp86
Vplace
p87
aF0.7727272727272727
aa(lp88
g22
ag7
(g11
S'\x9a\x8d\x94\x99A|\xb1?'
p89
tp90
Rp91
aa(lp92
g45
aI0
aasVItalie
p93
(lp94
(lp95
g31
aI0
aa(lp96
g6
ag7
(g11
S'0\xfa\x8c\x81\x8c\x15\xb2\xbf'
p97
tp98
Rp99
aa(lp100
g69
aI0
aa(lp101
g87
aF0.5853658536585366
aa(lp102
g22
ag7
(g11
S'\x89z\xbcU0\x04\xa8?'
p103
tp104
Rp105
aa(lp106
S'place'
p107
aF1.0
aasVChilina
p108
(lp109
(lp110
g31
aI0
aa(lp111
g33
ag7
(g11
S'\xda\x11\x96<e\xe2\xd0?'
p112
tp113
Rp114
aa(lp115
g18
aF0.7142857142857143
aa(lp116
g20
aF0.6909090909090909
aa(lp117
g40
ag7
(g11
S'd\xca\xf2\x08\xed\xb7\xa5?'
p118
tp119
Rp120
aa(lp121
S'character'
p122
aF1.0
aasVBrandolaccio
p123
(lp124
(lp125
g31
aI0
aa(lp126
g33
ag7
(g11
S'\xec\xbd\x90DQ\xc8\xc9?'
p127
tp128
Rp129
aa(lp130
g18
aF0.7142857142857143
aa(lp131
g20
aF0.6781609195402298
aa(lp132
g22
ag7
(g11
S'\xbb\xcf\xbd\xbd\x1b\x1c\xad?'
p133
tp134
Rp135
aa(lp136
S'character'
p137
aF1.0
aasVAjaccio
p138
(lp139
(lp140
g31
aI0
aa(lp141
g6
ag7
(g11
S'\xec\x1d0\x80\x9d\x14\xe4\xbf'
p142
tp143
Rp144
aa(lp145
Vplace
p146
aF0.75
aa(lp147
g87
aF0.627906976744186
aa(lp148
g40
ag7
(g11
S'?\xf8\xfc\xb2r\x1d\xba?'
p149
tp150
Rp151
aa(lp152
S'place'
p153
aF1.0
aasVAnglaise
p154
(lp155
(lp156
g31
aI0
aa(lp157
g6
ag7
(g11
S't\x93\xb9\xb7V\xe5\xd6?'
p158
tp159
Rp160
aa(lp161
g18
aF0.6666666666666666
aa(lp162
g87
aF0.875
aa(lp163
g40
ag7
(g11
S',\xc0\xe9\xaeN\xda\xdb?'
p164
tp165
Rp166
aa(lp167
S'character'
p168
aF0.532258064516129
aasVAgostini
p169
(lp170
(lp171
g31
aI0
aa(lp172
g6
ag7
(g11
S'047\xcd1\xd8\xb0?'
p173
tp174
Rp175
aa(lp176
g69
aI0
aa(lp177
g20
aF0.6538461538461539
aa(lp178
g40
ag7
(g11
S'\x9a\x89\xc7{\xae\xf0\xc4?'
p179
tp180
Rp181
aa(lp182
S'character'
p183
aF0.04285714285714285
aasVLydia
p184
(lp185
(lp186
g4
aF0.0
aa(lp187
g33
ag7
(g11
S'@\xca\x89\x10q\xaa\x91?'
p188
tp189
Rp190
aa(lp191
g18
aF0.7692307692307693
aa(lp192
g20
aF0.706766917293233
aa(lp193
g22
ag7
(g11
S'\x82\x9f\x07?N\xa7\x99?'
p194
tp195
Rp196
aa(lp197
S'place'
p198
aF0.5405405405405406
aasVRebbia
p199
(lp200
(lp201
g4
aF0.0
aa(lp202
g6
ag7
(g11
S' \xc9>q\xf6\xe4\xa2\xbf'
p203
tp204
Rp205
aa(lp206
g18
aF0.7
aa(lp207
g20
aF0.6764705882352942
aa(lp208
g22
ag7
(g11
S'\x106#\xec\x17\xab\x81?'
p209
tp210
Rp211
aa(lp212
S'place'
p213
aF1.0
aasVCorse
p214
(lp215
(lp216
g31
aI0
aa(lp217
g6
ag7
(g11
S'(Ux\xf2>\x19\xce\xbf'
p218
tp219
Rp220
aa(lp221
g18
aF0.6
aa(lp222
g87
aF0.6193548387096774
aa(lp223
g40
ag7
(g11
S'\xa6\xdbR\xe9_\x98\xc1?'
p224
tp225
Rp226
aa(lp227
S'place'
p228
aF1.0
aasVBarricini
p229
(lp230
(lp231
g31
aI0
aa(lp232
g6
ag7
(g11
S'Pyi\t\xd2\xf3\xa5?'
p233
tp234
Rp235
aa(lp236
g18
aF0.84
aa(lp237
g87
aF0.503448275862069
aa(lp238
g40
ag7
(g11
S'M\x88\xea\xf3\xcal\xae?'
p239
tp240
Rp241
aa(lp242
g45
aI0
aasVSaveria
p243
(lp244
(lp245
g31
aI0
aa(lp246
g6
ag7
(g11
S'\x9aT<\\\x9b\xa3\xd6?'
p247
tp248
Rp249
aa(lp250
g18
aF0.75
aa(lp251
g20
aF0.8235294117647058
aa(lp252
g22
ag7
(g11
S'\xf8E\xd51]\xf9\xd1?'
p253
tp254
Rp255
aa(lp256
S'character'
p257
aF0.6666666666666666
aasVPietri
p258
(lp259
(lp260
g31
aI0
aa(lp261
g6
ag7
(g11
S'\xc2<=\xaa\x0c\x9a\xd3?'
p262
tp263
Rp264
aa(lp265
g146
aF0.6
aa(lp266
g20
aF0.42857142857142855
aa(lp267
g40
ag7
(g11
S']\xcb\xe7\xb2t\x15\r?'
p268
tp269
Rp270
aa(lp271
S'character'
p272
aF0.05505952380952381
aasVMBarricini
p273
(lp274
(lp275
g4
aF0.0
aa(lp276
g33
ag7
(g11
S'L\xe9\x03-\x92\x83\xc3?'
p277
tp278
Rp279
aa(lp280
g18
aF0.5
aa(lp281
g20
aF0.7796610169491526
aa(lp282
g22
ag7
(g11
S'B\xa5\xff(\x84\x91\x93?'
p283
tp284
Rp285
aa(lp286
S'character'
p287
aF1.0
aasVPietranera
p288
(lp289
(lp290
g31
aI0
aa(lp291
g6
ag7
(g11
S'\x10f\x16B\xe1K\xa6?'
p292
tp293
Rp294
aa(lp295
g146
aF0.65
aa(lp296
g87
aF0.5895522388059702
aa(lp297
g40
ag7
(g11
S'\xcd\x0e\xee\x87\xfb\xac\xce?'
p298
tp299
Rp300
aa(lp301
S'place'
p302
aF1.0
aasVPoloGriffo
p303
(lp304
(lp305
g31
aI0
aa(lp306
g33
ag7
(g11
S' ^>mR\xda\xba?'
p307
tp308
Rp309
aa(lp310
g18
aF0.75
aa(lp311
g20
aF0.8461538461538461
aa(lp312
g22
ag7
(g11
S'\x9a\x8d\x94\x99A|\xb1?'
p313
tp314
Rp315
aa(lp316
S'character'
p317
aF1.0
aasVOrlanduccio
p318
(lp319
(lp320
g31
aI0
aa(lp321
g6
ag7
(g11
S'V\x10\x9b6\x10\xe0\xd5?'
p322
tp323
Rp324
aa(lp325
g146
aF0.625
aa(lp326
g87
aF0.5
aa(lp327
g22
ag7
(g11
S'V\xbe\x8d2\x94\x1e\x88?'
p328
tp329
Rp330
aa(lp331
S'character'
p332
aF1.0
aasVBrusco
p333
(lp334
(lp335
g31
aI0
aa(lp336
g6
ag7
(g11
S'\x80\x1e\xb3TO\x10\xa3\xbf'
p337
tp338
Rp339
aa(lp340
g18
aF0.5
aa(lp341
g20
aF0.5294117647058824
aa(lp342
g40
ag7
(g11
S'd\xca\xf2\x08\xed\xb7\xa5?'
p343
tp344
Rp345
aa(lp346
S'character'
p347
aF1.0
aasVOrso
p348
(lp349
(lp350
g4
aF0.0
aa(lp351
g33
ag7
(g11
S'\xd8\x95\xbd\xa9X\x91\xdd?'
p352
tp353
Rp354
aa(lp355
g18
aF0.6181818181818182
aa(lp356
g20
aF0.6557120500782473
aa(lp357
g22
ag7
(g11
S'`i)}\xc3\xb8\x92?'
p358
tp359
Rp360
aa(lp361
S'place'
p362
aF0.5094339622641509
aasVVincentello
p363
(lp364
(lp365
g31
aI0
aa(lp366
g33
ag7
(g11
S'\xa6\x8f\x0f\xbf\\\xda\xdd?'
p367
tp368
Rp369
aa(lp370
g18
aF0.8
aa(lp371
g20
aF0.8
aa(lp372
g40
ag7
(g11
S'\xa34<\xc2Ik\xbf?'
p373
tp374
Rp375
aa(lp376
S'character'
p377
aF0.625
aasVBastia
p378
(lp379
(lp380
g31
aI0
aa(lp381
g6
ag7
(g11
S'\x00Nl\xa3\x00Sy?'
p382
tp383
Rp384
aa(lp385
g69
aI0
aa(lp386
g87
aF0.6666666666666666
aa(lp387
g40
ag7
(g11
S'\x12\x8999XA\xb2?'
p388
tp389
Rp390
aa(lp391
S'place'
p392
aF1.0
aasVColomba
p393
(lp394
(lp395
g4
aF0.0
aa(lp396
g33
ag7
(g11
S'\x9c~\x12\xb5\x0f\xca\xd7?'
p397
tp398
Rp399
aa(lp400
g18
aF0.7333333333333333
aa(lp401
g20
aF0.6598639455782312
aa(lp402
g22
ag7
(g11
S"'\xa5\xf8\x08\x0f\x0b\xb0?"
p403
tp404
Rp405
aa(lp406
S'character'
p407
aF0.5083333333333333
aas.