(dp0
VUkraine
p1
(lp2
(lp3
Vunknown
p4
aI0
aa(lp5
Vplace
p6
acnumpy.core.multiarray
scalar
p7
(cnumpy
dtype
p8
(S'f8'
p9
I0
I1
tp10
Rp11
(I3
S'<'
p12
NNNI-1
I-1
I0
tp13
bS'\x1cx\xe2\xfb;1\xe0\xbf'
p14
tp15
Rp16
aa(lp17
Vunknown
p18
aI0
aa(lp19
Vplace
p20
aF0.8333333333333334
aa(lp21
Vplace
p22
ag7
(g11
S'\xe8\xf5\x18\x85\x8d\x9d\xd4?'
p23
tp24
Rp25
aa(lp26
S'place'
p27
aF1.0
aasVKiew
p28
(lp29
(lp30
g4
aI0
aa(lp31
g6
ag7
(g11
S'\x88\x90\x9b\xf8^\x06\xd4\xbf'
p32
tp33
Rp34
aa(lp35
Vplace
p36
aF0.6666666666666666
aa(lp37
g20
aF0.72
aa(lp38
g22
ag7
(g11
S'\xc6\xd1\xa2Y$\x89\xc8?'
p39
tp40
Rp41
aa(lp42
S'character'
p43
aF0.020161290322580645
aasVTarassBoulba
p44
(lp45
(lp46
g4
aI0
aa(lp47
Vcharacter
p48
ag7
(g11
S'\xd0\x1f\x9b\xb1\xca\x88\xdd?'
p49
tp50
Rp51
aa(lp52
Vcharacter
p53
aF0.6666666666666666
aa(lp54
Vcharacter
p55
aF0.75
aa(lp56
Vcharacter
p57
ag7
(g11
S'IBa\x9e\xaf\x85\x7f?'
p58
tp59
Rp60
aa(lp61
Vunknown
p62
aI0
aasVZaporogue
p63
(lp64
(lp65
g4
aI0
aa(lp66
g6
ag7
(g11
S'\xc4\x8a\xaa\x95)\xe0\xd2?'
p67
tp68
Rp69
aa(lp70
g53
aF0.8
aa(lp71
g55
aF0.55
aa(lp72
g22
ag7
(g11
S'\xc6\xd1\xa2Y$\x89\xc8?'
p73
tp74
Rp75
aa(lp76
S'character'
p77
aF1.0
aasVKoukoubenko
p78
(lp79
(lp80
g4
aI0
aa(lp81
g48
ag7
(g11
S'\xb8\xdc\xb9\x88u\x97\xb2?'
p82
tp83
Rp84
aa(lp85
g53
aF0.6363636363636364
aa(lp86
g55
aF0.8979591836734694
aa(lp87
g57
ag7
(g11
S'\r\xa0t\xb3B7\xa7?'
p88
tp89
Rp90
aa(lp91
g62
aI0
aasVBoulba
p92
(lp93
(lp94
g4
aI0
aa(lp95
g48
ag7
(g11
S'\\\xa3(:\xfcH\xd3?'
p96
tp97
Rp98
aa(lp99
g53
aF0.7
aa(lp100
g55
aF0.7098765432098766
aa(lp101
g57
ag7
(g11
S'\xa8\x0e\xe2X\x8d\x02S?'
p102
tp103
Rp104
aa(lp105
g62
aI0
aasVDniepr
p106
(lp107
(lp108
g4
aI0
aa(lp109
g6
ag7
(g11
S'P\x7fT\xd8\xd8\xa0\xb0\xbf'
p110
tp111
Rp112
aa(lp113
g36
aF0.8
aa(lp114
g20
aF0.8285714285714286
aa(lp115
g22
aF0.9
aa(lp116
S'place'
p117
aF1.0
aasVAndry
p118
(lp119
(lp120
Vcharacter
p121
aF0.0
aa(lp122
g48
ag7
(g11
S'\x9d\x08]7}\x81\xe5?'
p123
tp124
Rp125
aa(lp126
g53
aF0.6428571428571429
aa(lp127
g55
aF0.8086124401913876
aa(lp128
g57
ag7
(g11
S'\xdbK{d2\xe0\x19?'
p129
tp130
Rp131
aa(lp132
S'character'
p133
aF1.0
aasVTatar
p134
(lp135
(lp136
g4
aI0
aa(lp137
g6
ag7
(g11
S'\x18\xf3`\x98;\x04\xd3\xbf'
p138
tp139
Rp140
aa(lp141
g53
aF0.75
aa(lp142
g20
aF0.5833333333333334
aa(lp143
g57
ag7
(g11
S'a<#\x9czB\x8b?'
p144
tp145
Rp146
aa(lp147
g62
aI0
aasVPolonaise
p148
(lp149
(lp150
g4
aI0
aa(lp151
g6
ag7
(g11
S'\xd0\x02\x15m+!\xd3?'
p152
tp153
Rp154
aa(lp155
g18
aI0
aa(lp156
g55
aF0.5
aa(lp157
g22
aF0.9
aa(lp158
S'character'
p159
aF0.020161290322580645
aasVCosaque
p160
(lp161
(lp162
g4
aI0
aa(lp163
g6
ag7
(g11
S'\xc8\xe2h\x06\xe3\xbf\xb9?'
p164
tp165
Rp166
aa(lp167
g53
aF0.8461538461538461
aa(lp168
g55
aF0.5104895104895105
aa(lp169
g22
ag7
(g11
S'\xf5\x1b\x9c\x1bl\xaa\xbb?'
p170
tp171
Rp172
aa(lp173
g62
aI0
aasVOstap
p174
(lp175
(lp176
g121
aF0.0
aa(lp177
g48
ag7
(g11
S'\xd0@\x06\x11D{\xcd?'
p178
tp179
Rp180
aa(lp181
g53
aF0.5555555555555556
aa(lp182
g55
aF0.6551724137931034
aa(lp183
g57
ag7
(g11
S'\xc2\x80\xa3^\xf6\xf3p?'
p184
tp185
Rp186
aa(lp187
S'character'
p188
aF1.0
aasVYankel
p189
(lp190
(lp191
g4
aI0
aa(lp192
g48
ag7
(g11
S'\xa8\x0bb\x0bA\xbb\xe0?'
p193
tp194
Rp195
aa(lp196
g53
aF0.6363636363636364
aa(lp197
g55
aF0.7543859649122807
aa(lp198
g57
ag7
(g11
S'{\xd5\x0c\xe3\x7fl\\?'
p199
tp200
Rp201
aa(lp202
S'character'
p203
aF1.0
aasVPolonais
p204
(lp205
(lp206
g4
aI0
aa(lp207
g6
ag7
(g11
S'|{\x96\xabE/\xcc?'
p208
tp209
Rp210
aa(lp211
g53
aF0.75
aa(lp212
g55
aF0.5
aa(lp213
g22
ag7
(g11
S'<\xad\x8dJ\xd1\xd8\x86?'
p214
tp215
Rp216
aa(lp217
g62
aI0
aasVVarsovie
p218
(lp219
(lp220
g4
aI0
aa(lp221
g6
ag7
(g11
S'\xcc\xc7U|\xcb\xc2\xd3\xbf'
p222
tp223
Rp224
aa(lp225
g18
aI0
aa(lp226
g20
aF0.5333333333333333
aa(lp227
g57
ag7
(g11
S'IBa\x9e\xaf\x85\x7f?'
p228
tp229
Rp230
aa(lp231
S'place'
p232
aF1.0
aasVPologne
p233
(lp234
(lp235
g4
aI0
aa(lp236
g48
ag7
(g11
S'\xc0g(^\xf71\x9f?'
p237
tp238
Rp239
aa(lp240
g18
aI0
aa(lp241
g20
aF0.64
aa(lp242
g22
ag7
(g11
S'\xcd#\xd6\x88\xc7\xd8\xa3?'
p243
tp244
Rp245
aa(lp246
S'place'
p247
aF1.0
aasVChilo
p248
(lp249
(lp250
g4
aI0
aa(lp251
g6
ag7
(g11
S'\x0e\xd2??s\xc5\xd6?'
p252
tp253
Rp254
aa(lp255
g53
aF1.0
aa(lp256
g55
aF0.7142857142857143
aa(lp257
g22
aF0.9
aa(lp258
S'character'
p259
aF0.5
aasVTatare
p260
(lp261
(lp262
g4
aI0
aa(lp263
g48
ag7
(g11
S'\xf0F$\xa2\xd73\xcb?'
p264
tp265
Rp266
aa(lp267
g53
aF0.5
aa(lp268
g55
aF0.5757575757575758
aa(lp269
g57
ag7
(g11
S'\x9a\xbc\xbb\xf8\x80\xf9u?'
p270
tp271
Rp272
aa(lp273
g62
aI0
aasVTarass
p274
(lp275
(lp276
g121
aF0.0
aa(lp277
g48
ag7
(g11
S'\xfc\xa8\r\xca\xa1\xbd\xe5?'
p278
tp279
Rp280
aa(lp281
g53
aF0.7333333333333333
aa(lp282
g55
aF0.7366412213740458
aa(lp283
g57
ag7
(g11
S'\x1bfj\x05Q\xd8q?'
p284
tp285
Rp286
aa(lp287
S'place'
p288
aF0.11172413793103449
aasVChrist
p289
(lp290
(lp291
g4
aI0
aa(lp292
g6
ag7
(g11
S'`\xed\xc2\x822\x92\xcd\xbf'
p293
tp294
Rp295
aa(lp296
g53
aF0.4
aa(lp297
g20
aF0.6470588235294118
aa(lp298
g57
ag7
(g11
S'\xf9\xb7M+\xda\xcd\xb7?'
p299
tp300
Rp301
aa(lp302
S'character'
p303
aF0.5324675324675324
aas.